; Function Attrs: nounwind sspstrong uwtable
define dso_local ptr @bdrv_next_monitor_owned(ptr noundef readonly captures(address_is_null) %0) local_unnamed_addr #0 {
  %2 = tail call zeroext i1 @qemu_in_main_thread() #14
  br i1 %2, label %4, label %3

3:                                                ; preds = %1
  tail call void @__assert_fail(ptr noundef nonnull @.str, ptr noundef nonnull @.str.1, i32 noundef 695, ptr noundef nonnull @__PRETTY_FUNCTION__.bdrv_next_monitor_owned) #15
  unreachable

4:                                                ; preds = %1
  %.not = icmp eq ptr %0, null
  %5 = getelementptr inbounds nuw i8, ptr %0, i64 16664
  %.in = select i1 %.not, ptr @monitor_bdrv_states, ptr %5
  %6 = load ptr, ptr %.in, align 8
  ret ptr %6
}